; Function Attrs: mustprogress nounwind uwtable
define internal fastcc noundef nonnull align 8 dereferenceable(32) ptr @"_ZNSt8functionIFvjPKP4exprS3_R10ref_vectorIS0_11ast_managerEEEaSIZN2bv6solver19internalize_circuitEP3appE4$_24EENSt9enable_ifIXsr9_CallableIT_EE5valueERS9_E4typeEOSH_"(ptr noundef nonnull returned align 8 captures(ret: address, provenance) dereferenceable(32) %0, i64 %.0.val) unnamed_addr #6 align 2 personality ptr @__gxx_personality_v0 {
  %.sroa.0.i.i = alloca { i64, i64 }, align 8
  %2 = alloca %"class.std::function.215", align 8
  call void @llvm.lifetime.start.p0(i64 32, ptr nonnull %2) #25
  %3 = getelementptr inbounds nuw i8, ptr %2, i64 16
  %4 = getelementptr inbounds nuw i8, ptr %2, i64 24
  %5 = getelementptr inbounds nuw i8, ptr %2, i64 8
  store i64 0, ptr %5, align 8
  store i64 %.0.val, ptr %2, align 8, !tbaa !208
  call void @llvm.lifetime.start.p0(i64 16, ptr nonnull %.sroa.0.i.i)
  call void @llvm.memcpy.p0.p0.i64(ptr noundef nonnull align 8 dereferenceable(16) %.sroa.0.i.i, ptr noundef nonnull align 8 dereferenceable(32) %2, i64 16, i1 false), !tbaa.struct !209
  call void @llvm.memcpy.p0.p0.i64(ptr noundef nonnull align 8 dereferenceable(32) %2, ptr noundef nonnull align 8 dereferenceable(32) %0, i64 16, i1 false), !tbaa.struct !209
  call void @llvm.memcpy.p0.p0.i64(ptr noundef nonnull align 8 dereferenceable(32) %0, ptr noundef nonnull align 8 dereferenceable(16) %.sroa.0.i.i, i64 16, i1 false), !tbaa.struct !209
  call void @llvm.lifetime.end.p0(i64 16, ptr nonnull %.sroa.0.i.i)
  %6 = getelementptr inbounds nuw i8, ptr %0, i64 16
  %7 = load ptr, ptr %6, align 8, !tbaa !211
  store ptr %7, ptr %3, align 8, !tbaa !211
  store ptr @"_ZNSt17_Function_handlerIFvjPKP4exprS3_R10ref_vectorIS0_11ast_managerEEZN2bv6solver19internalize_circuitEP3appE4$_24E10_M_managerERSt9_Any_dataRKSF_St18_Manager_operation", ptr %6, align 8, !tbaa !211
  %8 = getelementptr inbounds nuw i8, ptr %0, i64 24
  %9 = load ptr, ptr %8, align 8, !tbaa !211
  store ptr %9, ptr %4, align 8, !tbaa !211
  store ptr @"_ZNSt17_Function_handlerIFvjPKP4exprS3_R10ref_vectorIS0_11ast_managerEEZN2bv6solver19internalize_circuitEP3appE4$_24E9_M_invokeERKSt9_Any_dataOjOS3_SJ_S7_", ptr %8, align 8, !tbaa !211
  %.not.i = icmp eq ptr %7, null
  br i1 %.not.i, label %_ZNSt14_Function_baseD2Ev.exit, label %10

10:                                               ; preds = %1
  %11 = invoke noundef zeroext i1 %7(ptr noundef nonnull align 8 dereferenceable(32) %2, ptr noundef nonnull align 8 dereferenceable(32) %2, i32 noundef 3)
          to label %_ZNSt14_Function_baseD2Ev.exit unwind label %12

12:                                               ; preds = %10
  %13 = landingpad { ptr, i32 }
          catch ptr null
  %14 = extractvalue { ptr, i32 } %13, 0
  call void @__clang_call_terminate(ptr %14) #26
  unreachable

_ZNSt14_Function_baseD2Ev.exit:                   ; preds = %1, %10
  call void @llvm.lifetime.end.p0(i64 32, ptr nonnull %2) #25
  ret ptr %0
}